; Function Attrs: nofree norecurse nosync nounwind memory(readwrite, inaccessiblemem: none) uwtable
define hidden i32 @convertRect2(ptr nocapture noundef readonly %0, ptr nocapture noundef readonly %1, i32 noundef %2, ptr noundef readonly %3) local_unnamed_addr #2 {
  %5 = load i32, ptr %0, align 8
  %6 = getelementptr inbounds i8, ptr %0, i64 4
  %7 = load i32, ptr %6, align 4
  %8 = getelementptr inbounds i8, ptr %0, i64 16
  %9 = load ptr, ptr %8, align 8
  %10 = getelementptr inbounds i8, ptr %1, i64 16
  %11 = load ptr, ptr %10, align 8
  %12 = load i32, ptr %1, align 8
  %spec.select = tail call i32 @llvm.smin.i32(i32 %12, i32 %5)
  %13 = getelementptr inbounds i8, ptr %1, i64 4
  %14 = load i32, ptr %13, align 4
  %.051 = tail call i32 @llvm.smin.i32(i32 %14, i32 %7)
  %.not = icmp eq ptr %3, null
  br i1 %.not, label %15, label %.thread74

15:                                               ; preds = %4
  %16 = icmp sgt i32 %spec.select, 0
  br i1 %16, label %.thread.us.preheader, label %.._crit_edge_crit_edge

.thread74:                                        ; preds = %4
  %17 = load i32, ptr %3, align 8
  %spec.select66 = tail call i32 @llvm.smin.i32(i32 %17, i32 %spec.select)
  %18 = getelementptr inbounds i8, ptr %3, i64 4
  %19 = load i32, ptr %18, align 4
  %.152 = tail call i32 @llvm.smin.i32(i32 %19, i32 %.051)
  %20 = icmp sgt i32 %spec.select66, 0
  br i1 %20, label %.thread.preheader, label %.._crit_edge_crit_edge

.._crit_edge_crit_edge:                           ; preds = %.thread74, %15
  %.25679 = phi i32 [ %spec.select66, %.thread74 ], [ %spec.select, %15 ]
  %.phi.trans.insert = getelementptr inbounds i8, ptr %0, i64 8
  %.pre = load i32, ptr %.phi.trans.insert, align 8
  br label %._crit_edge

.thread.preheader:                                ; preds = %.thread74
  %21 = getelementptr inbounds i8, ptr %3, i64 16
  %22 = load ptr, ptr %21, align 8
  %23 = getelementptr inbounds i8, ptr %1, i64 32
  %24 = load i32, ptr %23, align 8
  %25 = getelementptr inbounds i8, ptr %0, i64 12
  %26 = getelementptr inbounds i8, ptr %1, i64 12
  %27 = getelementptr inbounds i8, ptr %0, i64 24
  %28 = getelementptr inbounds i8, ptr %1, i64 24
  %29 = getelementptr inbounds i8, ptr %3, i64 12
  %30 = getelementptr inbounds i8, ptr %1, i64 36
  %31 = getelementptr inbounds i8, ptr %0, i64 8
  %32 = getelementptr inbounds i8, ptr %1, i64 8
  %33 = getelementptr inbounds i8, ptr %3, i64 8
  %34 = getelementptr inbounds i8, ptr %1, i64 40
  br label %.thread

.thread.us.preheader:                             ; preds = %15
  %35 = getelementptr inbounds i8, ptr %1, i64 32
  %36 = load i32, ptr %35, align 8
  %37 = getelementptr inbounds i8, ptr %0, i64 12
  %38 = getelementptr inbounds i8, ptr %1, i64 12
  %39 = getelementptr inbounds i8, ptr %0, i64 24
  %40 = getelementptr inbounds i8, ptr %1, i64 24
  %41 = getelementptr inbounds i8, ptr %1, i64 36
  %42 = getelementptr inbounds i8, ptr %0, i64 8
  %43 = getelementptr inbounds i8, ptr %1, i64 8
  %44 = getelementptr inbounds i8, ptr %1, i64 40
  br label %.thread.us

.thread.us:                                       ; preds = %.thread.us.preheader, %.thread.us
  %.071.us = phi i32 [ %57, %.thread.us ], [ %36, %.thread.us.preheader ]
  %.04770.us = phi i32 [ %58, %.thread.us ], [ 0, %.thread.us.preheader ]
  %.04968.us = phi ptr [ %55, %.thread.us ], [ %11, %.thread.us.preheader ]
  %.05067.us = phi ptr [ %52, %.thread.us ], [ %9, %.thread.us.preheader ]
  %45 = load i32, ptr %37, align 4
  %46 = load i32, ptr %38, align 4
  %47 = load ptr, ptr %39, align 8
  %48 = load ptr, ptr %40, align 8
  %49 = load i32, ptr %41, align 4
  tail call void @convertLine(ptr noundef %.05067.us, i32 noundef %45, ptr noundef %.04968.us, i32 noundef %46, i32 noundef %.051, ptr noundef %47, ptr noundef %48, i32 noundef %2, ptr noundef null, i32 noundef 0, ptr poison, i32 noundef %.071.us, i32 noundef %49)
  %50 = load i32, ptr %42, align 8
  %51 = sext i32 %50 to i64
  %52 = getelementptr inbounds i8, ptr %.05067.us, i64 %51
  %53 = load i32, ptr %43, align 8
  %54 = sext i32 %53 to i64
  %55 = getelementptr inbounds i8, ptr %.04968.us, i64 %54
  %56 = load i32, ptr %44, align 8
  %57 = add nsw i32 %56, %.071.us
  %58 = add nuw nsw i32 %.04770.us, 1
  %exitcond73.not = icmp eq i32 %58, %spec.select
  br i1 %exitcond73.not, label %._crit_edge, label %.thread.us, !llvm.loop !17

.thread:                                          ; preds = %.thread.preheader, %.thread
  %.071 = phi i32 [ %75, %.thread ], [ %24, %.thread.preheader ]
  %.04770 = phi i32 [ %76, %.thread ], [ 0, %.thread.preheader ]
  %.169 = phi ptr [ %73, %.thread ], [ %22, %.thread.preheader ]
  %.04968 = phi ptr [ %70, %.thread ], [ %11, %.thread.preheader ]
  %.05067 = phi ptr [ %67, %.thread ], [ %9, %.thread.preheader ]
  %59 = load i32, ptr %25, align 4
  %60 = load i32, ptr %26, align 4
  %61 = load ptr, ptr %27, align 8
  %62 = load ptr, ptr %28, align 8
  %63 = load i32, ptr %29, align 4
  %64 = load i32, ptr %30, align 4
  tail call void @convertLine(ptr noundef %.05067, i32 noundef %59, ptr noundef %.04968, i32 noundef %60, i32 noundef %.152, ptr noundef %61, ptr noundef %62, i32 noundef %2, ptr noundef %.169, i32 noundef %63, ptr poison, i32 noundef %.071, i32 noundef %64)
  %65 = load i32, ptr %31, align 8
  %66 = sext i32 %65 to i64
  %67 = getelementptr inbounds i8, ptr %.05067, i64 %66
  %68 = load i32, ptr %32, align 8
  %69 = sext i32 %68 to i64
  %70 = getelementptr inbounds i8, ptr %.04968, i64 %69
  %71 = load i32, ptr %33, align 8
  %72 = sext i32 %71 to i64
  %73 = getelementptr inbounds i8, ptr %.169, i64 %72
  %74 = load i32, ptr %34, align 8
  %75 = add nsw i32 %74, %.071
  %76 = add nuw nsw i32 %.04770, 1
  %exitcond.not = icmp eq i32 %76, %spec.select66
  br i1 %exitcond.not, label %._crit_edge, label %.thread, !llvm.loop !17

._crit_edge:                                      ; preds = %.thread, %.thread.us, %.._crit_edge_crit_edge
  %.25678 = phi i32 [ %.25679, %.._crit_edge_crit_edge ], [ %spec.select, %.thread.us ], [ %spec.select66, %.thread ]
  %77 = phi i32 [ %.pre, %.._crit_edge_crit_edge ], [ %50, %.thread.us ], [ %65, %.thread ]
  %78 = mul nsw i32 %77, %.25678
  ret i32 %78
}